; Function Attrs: mustprogress uwtable
define hidden noundef ptr @_Z25mk_reduce_args_simplifierR11ast_managerR20dependent_expr_stateRK10params_ref(ptr noundef nonnull align 8 dereferenceable(976) %m, ptr noundef nonnull align 8 dereferenceable(160) %st, ptr nocapture noundef nonnull readnone align 8 dereferenceable(8) %p) local_unnamed_addr #3 personality ptr @__gxx_personality_v0 {
entry:
  %call = tail call noalias noundef ptr @_ZN6memory8allocateEm(i64 noundef 64)
  %m2.i.i = getelementptr inbounds i8, ptr %call, i64 8
  store ptr %m, ptr %m2.i.i, align 8
  %m_fmls.i.i = getelementptr inbounds i8, ptr %call, i64 16
  store ptr %st, ptr %m_fmls.i.i, align 8
  %m_trail.i.i = getelementptr inbounds i8, ptr %call, i64 24
  %m_trail3.i.i = getelementptr inbounds i8, ptr %st, i64 104
  store ptr %m_trail3.i.i, ptr %m_trail.i.i, align 8
  store ptr getelementptr inbounds ({ [13 x ptr] }, ptr @_ZTV22reduce_args_simplifier, i64 0, i32 0, i64 2), ptr %call, align 8
  %m_bv.i = getelementptr inbounds i8, ptr %call, i64 32
  tail call void @_ZN7bv_utilC1ER11ast_manager(ptr noundef nonnull align 8 dereferenceable(24) %m_bv.i, ptr noundef nonnull align 8 dereferenceable(976) %m)
  %m_num_decls.i = getelementptr inbounds i8, ptr %call, i64 56
  store i32 0, ptr %m_num_decls.i, align 8
  ret ptr %call
}